target datalayout = "e-m:e-p270:32:32-p271:32:32-p272:64:64-i64:64-i128:128-f80:128-n8:16:32:64-S128"
target triple = "x86_64-unknown-linux-gnu"

%"class.std::set.0" = type { %"class.std::_Rb_tree.1" }
%"class.std::_Rb_tree.1" = type { %"struct.std::_Rb_tree<QuantLib::Observer *, QuantLib::Observer *, std::_Identity<QuantLib::Observer *>, std::less<QuantLib::Observer *>>::_Rb_tree_impl" }
%"struct.std::_Rb_tree<QuantLib::Observer *, QuantLib::Observer *, std::_Identity<QuantLib::Observer *>, std::less<QuantLib::Observer *>>::_Rb_tree_impl" = type { [8 x i8], %"struct.std::_Rb_tree_header" }
%"struct.std::_Rb_tree_header" = type { %"struct.std::_Rb_tree_node_base", i64 }
%"struct.std::_Rb_tree_node_base" = type { i32, ptr, ptr, ptr }
%"class.QuantLib::Date" = type { i64 }
%"class.boost::detail::shared_count" = type { ptr }
%"class.std::set" = type { %"class.std::_Rb_tree" }
%"class.std::_Rb_tree" = type { %"struct.std::_Rb_tree<boost::shared_ptr<QuantLib::Observable>, boost::shared_ptr<QuantLib::Observable>, std::_Identity<boost::shared_ptr<QuantLib::Observable>>, std::less<boost::shared_ptr<QuantLib::Observable>>>::_Rb_tree_impl" }
%"struct.std::_Rb_tree<boost::shared_ptr<QuantLib::Observable>, boost::shared_ptr<QuantLib::Observable>, std::_Identity<boost::shared_ptr<QuantLib::Observable>>, std::less<boost::shared_ptr<QuantLib::Observable>>>::_Rb_tree_impl" = type { [8 x i8], %"struct.std::_Rb_tree_header" }
%"class.QuantLib::Observable" = type { ptr, %"class.std::set.0" }
%"class.QuantLib::Observer" = type { ptr, %"class.std::set" }
%"class.QuantLib::Basket" = type { %"class.QuantLib::LazyObject.base", %"class.std::vector.16", %"class.boost::shared_ptr.25", %"class.boost::shared_ptr.26", double, double, double, double, double, double, double, double, double, double, %"class.std::vector.27", %"class.std::vector.16", %"class.std::vector.32", %"class.std::vector.37", %"class.QuantLib::Date", %"class.boost::shared_ptr.42", %"class.QuantLib::Observable", %"class.QuantLib::Observer" }
%"class.QuantLib::LazyObject.base" = type <{ ptr, i8, i8, i8, i8 }>
%"class.boost::shared_ptr.25" = type { ptr, %"class.boost::detail::shared_count" }
%"class.boost::shared_ptr.26" = type { ptr, %"class.boost::detail::shared_count" }
%"class.std::vector.27" = type { %"struct.std::_Vector_base.28" }
%"struct.std::_Vector_base.28" = type { %"struct.std::_Vector_base<unsigned long, std::allocator<unsigned long>>::_Vector_impl" }
%"struct.std::_Vector_base<unsigned long, std::allocator<unsigned long>>::_Vector_impl" = type { %"struct.std::_Vector_base<unsigned long, std::allocator<unsigned long>>::_Vector_impl_data" }
%"struct.std::_Vector_base<unsigned long, std::allocator<unsigned long>>::_Vector_impl_data" = type { ptr, ptr, ptr }
%"class.std::vector.16" = type { %"struct.std::_Vector_base.17" }
%"struct.std::_Vector_base.17" = type { %"struct.std::_Vector_base<double, std::allocator<double>>::_Vector_impl" }
%"struct.std::_Vector_base<double, std::allocator<double>>::_Vector_impl" = type { %"struct.std::_Vector_base<double, std::allocator<double>>::_Vector_impl_data" }
%"struct.std::_Vector_base<double, std::allocator<double>>::_Vector_impl_data" = type { ptr, ptr, ptr }
%"class.std::vector.32" = type { %"struct.std::_Vector_base.33" }
%"struct.std::_Vector_base.33" = type { %"struct.std::_Vector_base<std::__cxx11::basic_string<char>, std::allocator<std::__cxx11::basic_string<char>>>::_Vector_impl" }
%"struct.std::_Vector_base<std::__cxx11::basic_string<char>, std::allocator<std::__cxx11::basic_string<char>>>::_Vector_impl" = type { %"struct.std::_Vector_base<std::__cxx11::basic_string<char>, std::allocator<std::__cxx11::basic_string<char>>>::_Vector_impl_data" }
%"struct.std::_Vector_base<std::__cxx11::basic_string<char>, std::allocator<std::__cxx11::basic_string<char>>>::_Vector_impl_data" = type { ptr, ptr, ptr }
%"class.std::vector.37" = type { %"struct.std::_Vector_base.38" }
%"struct.std::_Vector_base.38" = type { %"struct.std::_Vector_base<QuantLib::DefaultProbKey, std::allocator<QuantLib::DefaultProbKey>>::_Vector_impl" }
%"struct.std::_Vector_base<QuantLib::DefaultProbKey, std::allocator<QuantLib::DefaultProbKey>>::_Vector_impl" = type { %"struct.std::_Vector_base<QuantLib::DefaultProbKey, std::allocator<QuantLib::DefaultProbKey>>::_Vector_impl_data" }
%"struct.std::_Vector_base<QuantLib::DefaultProbKey, std::allocator<QuantLib::DefaultProbKey>>::_Vector_impl_data" = type { ptr, ptr, ptr }
%"class.boost::shared_ptr.42" = type { ptr, %"class.boost::detail::shared_count" }
%"class.QuantLib::DefaultProbKey" = type <{ %"class.std::vector.71", %"class.QuantLib::Currency", i32, [4 x i8] }>
%"class.std::vector.71" = type { %"struct.std::_Vector_base.72" }
%"struct.std::_Vector_base.72" = type { %"struct.std::_Vector_base<boost::shared_ptr<QuantLib::DefaultType>, std::allocator<boost::shared_ptr<QuantLib::DefaultType>>>::_Vector_impl" }
%"struct.std::_Vector_base<boost::shared_ptr<QuantLib::DefaultType>, std::allocator<boost::shared_ptr<QuantLib::DefaultType>>>::_Vector_impl" = type { %"struct.std::_Vector_base<boost::shared_ptr<QuantLib::DefaultType>, std::allocator<boost::shared_ptr<QuantLib::DefaultType>>>::_Vector_impl_data" }
%"struct.std::_Vector_base<boost::shared_ptr<QuantLib::DefaultType>, std::allocator<boost::shared_ptr<QuantLib::DefaultType>>>::_Vector_impl_data" = type { ptr, ptr, ptr }
%"class.QuantLib::Currency" = type { %"class.boost::shared_ptr.76" }
%"class.boost::shared_ptr.76" = type { ptr, %"class.boost::detail::shared_count" }

@.str.11 = private unnamed_addr constant [8 x i8] c"px != 0\00", align 1
@.str.12 = private unnamed_addr constant [102 x i8] c"generated/home/dtcxzyw/WorkSpace/SDK/vcpkg/installed/x64-linux/include/boost/smart_ptr/shared_ptr.hpp\00", align 1
@__PRETTY_FUNCTION__._ZNK5boost10shared_ptrIN8QuantLib4PoolEEptEv = private unnamed_addr constant [125 x i8] c"typename boost::detail::sp_member_access<T>::type boost::shared_ptr<QuantLib::Pool>::operator->() const [T = QuantLib::Pool]\00", align 1
@__PRETTY_FUNCTION__._ZNK5boost10shared_ptrIN8QuantLib16DefaultLossModelEEptEv = private unnamed_addr constant [149 x i8] c"typename boost::detail::sp_member_access<T>::type boost::shared_ptr<QuantLib::DefaultLossModel>::operator->() const [T = QuantLib::DefaultLossModel]\00", align 1

; Function Attrs: mustprogress nounwind uwtable
define linkonce_odr noundef nonnull align 8 dereferenceable(44) ptr @_ZNSt6vectorIN8QuantLib14DefaultProbKeyESaIS1_EEixEm(ptr noundef nonnull align 8 dereferenceable(24) %this, i64 noundef %__n) #1 comdat align 2 {
entry:
  %this.addr = alloca ptr, align 8
  %__n.addr = alloca i64, align 8
  store ptr %this, ptr %this.addr, align 8, !tbaa !3
  store i64 %__n, ptr %__n.addr, align 8, !tbaa !55
  %this1 = load ptr, ptr %this.addr, align 8
  %_M_impl = getelementptr inbounds nuw %"struct.std::_Vector_base.38", ptr %this1, i32 0, i32 0
  %_M_start = getelementptr inbounds nuw %"struct.std::_Vector_base<QuantLib::DefaultProbKey, std::allocator<QuantLib::DefaultProbKey>>::_Vector_impl_data", ptr %_M_impl, i32 0, i32 0
  %0 = load ptr, ptr %_M_start, align 8, !tbaa !69
  %1 = load i64, ptr %__n.addr, align 8, !tbaa !55
  %add.ptr = getelementptr inbounds nuw %"class.QuantLib::DefaultProbKey", ptr %0, i64 %1
  ret ptr %add.ptr
}

; Function Attrs: mustprogress uwtable
define linkonce_odr noundef ptr @_ZNK5boost10shared_ptrIN8QuantLib4PoolEEptEv(ptr noundef nonnull align 8 dereferenceable(16) %this) #2 comdat align 2 {
entry:
  %this.addr = alloca ptr, align 8
  store ptr %this, ptr %this.addr, align 8, !tbaa !3
  %this1 = load ptr, ptr %this.addr, align 8
  %px = getelementptr inbounds nuw %"class.boost::shared_ptr.25", ptr %this1, i32 0, i32 0
  %0 = load ptr, ptr %px, align 8, !tbaa !56
  %cmp = icmp ne ptr %0, null
  %lnot = xor i1 %cmp, true
  %lnot2 = xor i1 %lnot, true
  %conv = zext i1 %lnot2 to i64
  %expval = call i64 @llvm.expect.i64(i64 %conv, i64 1)
  %tobool = icmp ne i64 %expval, 0
  br i1 %tobool, label %cond.true, label %cond.false

cond.true:                                        ; preds = %entry
  br label %cond.end

cond.false:                                       ; preds = %entry
  call void @_ZN5boost16assertion_failedEPKcS1_S1_l(ptr noundef @.str.11, ptr noundef @__PRETTY_FUNCTION__._ZNK5boost10shared_ptrIN8QuantLib4PoolEEptEv, ptr noundef @.str.12, i64 noundef 784)
  br label %cond.end

cond.end:                                         ; preds = %cond.false, %cond.true
  %px3 = getelementptr inbounds nuw %"class.boost::shared_ptr.25", ptr %this1, i32 0, i32 0
  %1 = load ptr, ptr %px3, align 8, !tbaa !56
  ret ptr %1
}

; Function Attrs: mustprogress uwtable
define linkonce_odr noundef ptr @_ZNK5boost10shared_ptrIN8QuantLib16DefaultLossModelEEptEv(ptr noundef nonnull align 8 dereferenceable(16) %this) #2 comdat align 2 {
entry:
  %this.addr = alloca ptr, align 8
  store ptr %this, ptr %this.addr, align 8, !tbaa !3
  %this1 = load ptr, ptr %this.addr, align 8
  %px = getelementptr inbounds nuw %"class.boost::shared_ptr.42", ptr %this1, i32 0, i32 0
  %0 = load ptr, ptr %px, align 8, !tbaa !58
  %cmp = icmp ne ptr %0, null
  %lnot = xor i1 %cmp, true
  %lnot2 = xor i1 %lnot, true
  %conv = zext i1 %lnot2 to i64
  %expval = call i64 @llvm.expect.i64(i64 %conv, i64 1)
  %tobool = icmp ne i64 %expval, 0
  br i1 %tobool, label %cond.true, label %cond.false

cond.true:                                        ; preds = %entry
  br label %cond.end

cond.false:                                       ; preds = %entry
  call void @_ZN5boost16assertion_failedEPKcS1_S1_l(ptr noundef @.str.11, ptr noundef @__PRETTY_FUNCTION__._ZNK5boost10shared_ptrIN8QuantLib16DefaultLossModelEEptEv, ptr noundef @.str.12, i64 noundef 784)
  br label %cond.end

cond.end:                                         ; preds = %cond.false, %cond.true
  %px3 = getelementptr inbounds nuw %"class.boost::shared_ptr.42", ptr %this1, i32 0, i32 0
  %1 = load ptr, ptr %px3, align 8, !tbaa !58
  ret ptr %1
}

; Function Attrs: mustprogress uwtable
define noundef double @_ZNK8QuantLib6Basket12recoveryRateERKNS_4DateEm(ptr noundef nonnull align 8 dereferenceable(272) %this, ptr noundef nonnull align 8 dereferenceable(8) %d, i64 noundef %iName) #2 align 2 personality ptr @__gxx_personality_v0 {
entry:
  %this.addr = alloca ptr, align 8
  %d.addr = alloca ptr, align 8
  %iName.addr = alloca i64, align 8
  %ref.tmp = alloca %"class.std::vector.37", align 8
  %exn.slot = alloca ptr, align 8
  %ehselector.slot = alloca i32, align 4
  store ptr %this, ptr %this.addr, align 8, !tbaa !3
  store ptr %d, ptr %d.addr, align 8, !tbaa !3
  store i64 %iName, ptr %iName.addr, align 8, !tbaa !55
  %this1 = load ptr, ptr %this.addr, align 8
  %vtable = load ptr, ptr %this1, align 8, !tbaa !20
  %vfn = getelementptr inbounds ptr, ptr %vtable, i64 3
  %0 = load ptr, ptr %vfn, align 8
  call void %0(ptr noundef nonnull align 8 dereferenceable(12) %this1)
  %lossModel_ = getelementptr inbounds nuw %"class.QuantLib::Basket", ptr %this1, i32 0, i32 19
  %call = call noundef ptr @_ZNK5boost10shared_ptrIN8QuantLib16DefaultLossModelEEptEv(ptr noundef nonnull align 8 dereferenceable(16) %lossModel_)
  %1 = load ptr, ptr %d.addr, align 8, !tbaa !3
  %2 = load i64, ptr %iName.addr, align 8, !tbaa !55
  call void @llvm.lifetime.start.p0(i64 24, ptr %ref.tmp) #14
  %pool_ = getelementptr inbounds nuw %"class.QuantLib::Basket", ptr %this1, i32 0, i32 2
  %call2 = call noundef ptr @_ZNK5boost10shared_ptrIN8QuantLib4PoolEEptEv(ptr noundef nonnull align 8 dereferenceable(16) %pool_)
  call void @_ZNK8QuantLib4Pool11defaultKeysEv(ptr dead_on_unwind writable sret(%"class.std::vector.37") align 8 %ref.tmp, ptr noundef nonnull align 8 dereferenceable(168) %call2)
  %3 = load i64, ptr %iName.addr, align 8, !tbaa !55
  %call3 = call noundef nonnull align 8 dereferenceable(44) ptr @_ZNSt6vectorIN8QuantLib14DefaultProbKeyESaIS1_EEixEm(ptr noundef nonnull align 8 dereferenceable(24) %ref.tmp, i64 noundef %3) #14
  %vtable4 = load ptr, ptr %call, align 8, !tbaa !20
  %vfn5 = getelementptr inbounds ptr, ptr %vtable4, i64 13
  %4 = load ptr, ptr %vfn5, align 8
  %call6 = invoke noundef double %4(ptr noundef nonnull align 8 dereferenceable(72) %call, ptr noundef nonnull align 8 dereferenceable(8) %1, i64 noundef %2, ptr noundef nonnull align 8 dereferenceable(44) %call3)
          to label %invoke.cont unwind label %lpad

invoke.cont:                                      ; preds = %entry
  call void @_ZNSt6vectorIN8QuantLib14DefaultProbKeyESaIS1_EED2Ev(ptr noundef nonnull align 8 dereferenceable(24) %ref.tmp) #14
  call void @llvm.lifetime.end.p0(i64 24, ptr %ref.tmp) #14
  ret double %call6

lpad:                                             ; preds = %entry
  %5 = landingpad { ptr, i32 }
          cleanup
  %6 = extractvalue { ptr, i32 } %5, 0
  store ptr %6, ptr %exn.slot, align 8
  %7 = extractvalue { ptr, i32 } %5, 1
  store i32 %7, ptr %ehselector.slot, align 4
  call void @_ZNSt6vectorIN8QuantLib14DefaultProbKeyESaIS1_EED2Ev(ptr noundef nonnull align 8 dereferenceable(24) %ref.tmp) #14
  call void @llvm.lifetime.end.p0(i64 24, ptr %ref.tmp) #14
  br label %eh.resume

eh.resume:                                        ; preds = %lpad
  %exn = load ptr, ptr %exn.slot, align 8
  %sel = load i32, ptr %ehselector.slot, align 4
  %lpad.val = insertvalue { ptr, i32 } poison, ptr %exn, 0
  %lpad.val7 = insertvalue { ptr, i32 } %lpad.val, i32 %sel, 1
  resume { ptr, i32 } %lpad.val7
}