; Function Attrs: mustprogress uwtable
define noundef double @_ZNK8QuantLib6Basket12recoveryRateERKNS_4DateEm(ptr noundef nonnull align 8 dereferenceable(272) %this, ptr noundef nonnull align 8 dereferenceable(8) %d, i64 noundef %iName) local_unnamed_addr #8 align 2 personality ptr @__gxx_personality_v0 {
entry:
  %ref.tmp = alloca %"class.std::vector.37", align 8
  %vtable = load ptr, ptr %this, align 8, !tbaa !33
  %vfn = getelementptr inbounds i8, ptr %vtable, i64 24
  %0 = load ptr, ptr %vfn, align 8
  tail call void %0(ptr noundef nonnull align 8 dereferenceable(12) %this)
  %lossModel_ = getelementptr inbounds nuw i8, ptr %this, i64 256
  %1 = load ptr, ptr %lossModel_, align 8, !tbaa !106
  %cmp.not.i = icmp eq ptr %1, null
  br i1 %cmp.not.i, label %cond.false.i, label %_ZNK5boost10shared_ptrIN8QuantLib16DefaultLossModelEEptEv.exit, !prof !123

cond.false.i:                                     ; preds = %entry
  tail call void @_ZN5boost16assertion_failedEPKcS1_S1_l(ptr noundef nonnull @.str.11, ptr noundef nonnull @__PRETTY_FUNCTION__._ZNK5boost10shared_ptrIN8QuantLib16DefaultLossModelEEptEv, ptr noundef nonnull @.str.12, i64 noundef 784)
  %.pre.i = load ptr, ptr %lossModel_, align 8, !tbaa !106
  br label %_ZNK5boost10shared_ptrIN8QuantLib16DefaultLossModelEEptEv.exit

_ZNK5boost10shared_ptrIN8QuantLib16DefaultLossModelEEptEv.exit: ; preds = %entry, %cond.false.i
  %2 = phi ptr [ %1, %entry ], [ %.pre.i, %cond.false.i ]
  call void @llvm.lifetime.start.p0(i64 24, ptr nonnull %ref.tmp) #30
  %pool_ = getelementptr inbounds nuw i8, ptr %this, i64 40
  %3 = load ptr, ptr %pool_, align 8, !tbaa !50
  %cmp.not.i2 = icmp eq ptr %3, null
  br i1 %cmp.not.i2, label %cond.false.i3, label %_ZNK5boost10shared_ptrIN8QuantLib4PoolEEptEv.exit, !prof !123

cond.false.i3:                                    ; preds = %_ZNK5boost10shared_ptrIN8QuantLib16DefaultLossModelEEptEv.exit
  tail call void @_ZN5boost16assertion_failedEPKcS1_S1_l(ptr noundef nonnull @.str.11, ptr noundef nonnull @__PRETTY_FUNCTION__._ZNK5boost10shared_ptrIN8QuantLib4PoolEEptEv, ptr noundef nonnull @.str.12, i64 noundef 784)
  %.pre.i4 = load ptr, ptr %pool_, align 8, !tbaa !50
  br label %_ZNK5boost10shared_ptrIN8QuantLib4PoolEEptEv.exit

_ZNK5boost10shared_ptrIN8QuantLib4PoolEEptEv.exit: ; preds = %_ZNK5boost10shared_ptrIN8QuantLib16DefaultLossModelEEptEv.exit, %cond.false.i3
  %4 = phi ptr [ %3, %_ZNK5boost10shared_ptrIN8QuantLib16DefaultLossModelEEptEv.exit ], [ %.pre.i4, %cond.false.i3 ]
  call void @_ZNK8QuantLib4Pool11defaultKeysEv(ptr dead_on_unwind nonnull writable sret(%"class.std::vector.37") align 8 %ref.tmp, ptr noundef nonnull align 8 dereferenceable(168) %4)
  %5 = load ptr, ptr %ref.tmp, align 8, !tbaa !91
  %add.ptr.i = getelementptr inbounds nuw %"class.QuantLib::DefaultProbKey", ptr %5, i64 %iName
  %vtable4 = load ptr, ptr %2, align 8, !tbaa !33
  %vfn5 = getelementptr inbounds i8, ptr %vtable4, i64 104
  %6 = load ptr, ptr %vfn5, align 8
  %call6 = invoke noundef double %6(ptr noundef nonnull align 8 dereferenceable(72) %2, ptr noundef nonnull align 8 dereferenceable(8) %d, i64 noundef %iName, ptr noundef nonnull align 8 dereferenceable(44) %add.ptr.i)
          to label %invoke.cont unwind label %lpad

invoke.cont:                                      ; preds = %_ZNK5boost10shared_ptrIN8QuantLib4PoolEEptEv.exit
  %7 = load ptr, ptr %ref.tmp, align 8, !tbaa !91
  %_M_finish.i = getelementptr inbounds nuw i8, ptr %ref.tmp, i64 8
  %8 = load ptr, ptr %_M_finish.i, align 8, !tbaa !92
  invoke void @_ZNSt12_Destroy_auxILb0EE9__destroyIPN8QuantLib14DefaultProbKeyEEEvT_S5_(ptr noundef %7, ptr noundef %8)
          to label %invoke.cont.i unwind label %terminate.lpad.i

invoke.cont.i:                                    ; preds = %invoke.cont
  %9 = load ptr, ptr %ref.tmp, align 8, !tbaa !91
  %tobool.not.i.i.i = icmp eq ptr %9, null
  br i1 %tobool.not.i.i.i, label %_ZNSt6vectorIN8QuantLib14DefaultProbKeyESaIS1_EED2Ev.exit, label %if.then.i.i.i

if.then.i.i.i:                                    ; preds = %invoke.cont.i
  %_M_end_of_storage.i.i = getelementptr inbounds nuw i8, ptr %ref.tmp, i64 16
  %10 = load ptr, ptr %_M_end_of_storage.i.i, align 8, !tbaa !93
  %sub.ptr.lhs.cast.i.i = ptrtoint ptr %10 to i64
  %sub.ptr.rhs.cast.i.i = ptrtoint ptr %9 to i64
  %sub.ptr.sub.i.i = sub i64 %sub.ptr.lhs.cast.i.i, %sub.ptr.rhs.cast.i.i
  call void @_ZdlPvm(ptr noundef nonnull %9, i64 noundef %sub.ptr.sub.i.i) #33
  br label %_ZNSt6vectorIN8QuantLib14DefaultProbKeyESaIS1_EED2Ev.exit

terminate.lpad.i:                                 ; preds = %invoke.cont
  %11 = landingpad { ptr, i32 }
          catch ptr null
  %12 = extractvalue { ptr, i32 } %11, 0
  call void @__clang_call_terminate(ptr %12) #31
  unreachable

_ZNSt6vectorIN8QuantLib14DefaultProbKeyESaIS1_EED2Ev.exit: ; preds = %invoke.cont.i, %if.then.i.i.i
  call void @llvm.lifetime.end.p0(i64 24, ptr nonnull %ref.tmp) #30
  ret double %call6

lpad:                                             ; preds = %_ZNK5boost10shared_ptrIN8QuantLib4PoolEEptEv.exit
  %13 = landingpad { ptr, i32 }
          cleanup
  call void @_ZNSt6vectorIN8QuantLib14DefaultProbKeyESaIS1_EED2Ev(ptr noundef nonnull align 8 dereferenceable(24) %ref.tmp) #30
  call void @llvm.lifetime.end.p0(i64 24, ptr nonnull %ref.tmp) #30
  resume { ptr, i32 } %13
}